target datalayout = "e-m:e-p270:32:32-p271:32:32-p272:64:64-i64:64-i128:128-f80:128-n8:16:32:64-S128"
target triple = "x86_64-pc-linux-gnu"

%struct.gres_slurmd_conf = type { i32, i64, i32, ptr, ptr, ptr, ptr, ptr, ptr, ptr, i32 }
%struct.conf_cnt_t = type { i64, ptr, ptr }

; Function Attrs: nounwind uwtable
define internal i32 @_foreach_compare_conf_counts(ptr noundef %0, ptr noundef %1) #0 {
  %3 = alloca i32, align 4
  %4 = alloca ptr, align 8
  %5 = alloca ptr, align 8
  %6 = alloca ptr, align 8
  %7 = alloca ptr, align 8
  %8 = alloca i32, align 4
  store ptr %0, ptr %4, align 8
  store ptr %1, ptr %5, align 8
  call void @llvm.lifetime.start.p0(i64 8, ptr %6) #11
  %9 = load ptr, ptr %4, align 8
  store ptr %9, ptr %6, align 8
  call void @llvm.lifetime.start.p0(i64 8, ptr %7) #11
  %10 = load ptr, ptr %5, align 8
  store ptr %10, ptr %7, align 8
  %11 = load ptr, ptr %6, align 8
  %12 = getelementptr inbounds nuw %struct.gres_slurmd_conf, ptr %11, i32 0, i32 8
  %13 = load ptr, ptr %12, align 8
  %14 = icmp ne ptr %13, null
  br i1 %14, label %15, label %25

15:                                               ; preds = %2
  %16 = load ptr, ptr %6, align 8
  %17 = getelementptr inbounds nuw %struct.gres_slurmd_conf, ptr %16, i32 0, i32 8
  %18 = load ptr, ptr %17, align 8
  %19 = load ptr, ptr %7, align 8
  %20 = getelementptr inbounds nuw %struct.conf_cnt_t, ptr %19, i32 0, i32 2
  %21 = load ptr, ptr %20, align 8
  %22 = call i32 @xstrcasecmp(ptr noundef %18, ptr noundef %21)
  %23 = icmp ne i32 %22, 0
  br i1 %23, label %24, label %25

24:                                               ; preds = %15
  store i32 0, ptr %3, align 4
  store i32 1, ptr %8, align 4
  br label %52

25:                                               ; preds = %15, %2
  %26 = load ptr, ptr %6, align 8
  %27 = getelementptr inbounds nuw %struct.gres_slurmd_conf, ptr %26, i32 0, i32 1
  %28 = load i64, ptr %27, align 8
  %29 = load ptr, ptr %7, align 8
  %30 = getelementptr inbounds nuw %struct.conf_cnt_t, ptr %29, i32 0, i32 0
  %31 = load i64, ptr %30, align 8
  %32 = icmp ugt i64 %28, %31
  br i1 %32, label %33, label %41

33:                                               ; preds = %25
  %34 = load ptr, ptr %7, align 8
  %35 = getelementptr inbounds nuw %struct.conf_cnt_t, ptr %34, i32 0, i32 0
  %36 = load i64, ptr %35, align 8
  %37 = load ptr, ptr %6, align 8
  %38 = getelementptr inbounds nuw %struct.gres_slurmd_conf, ptr %37, i32 0, i32 1
  %39 = load i64, ptr %38, align 8
  %40 = sub i64 %39, %36
  store i64 %40, ptr %38, align 8
  store i32 -1, ptr %3, align 4
  store i32 1, ptr %8, align 4
  br label %52

41:                                               ; preds = %25
  %42 = load ptr, ptr %6, align 8
  %43 = getelementptr inbounds nuw %struct.gres_slurmd_conf, ptr %42, i32 0, i32 1
  %44 = load i64, ptr %43, align 8
  %45 = load ptr, ptr %7, align 8
  %46 = getelementptr inbounds nuw %struct.conf_cnt_t, ptr %45, i32 0, i32 0
  %47 = load i64, ptr %46, align 8
  %48 = sub i64 %47, %44
  store i64 %48, ptr %46, align 8
  %49 = load ptr, ptr %6, align 8
  %50 = getelementptr inbounds nuw %struct.gres_slurmd_conf, ptr %49, i32 0, i32 1
  store i64 0, ptr %50, align 8
  br label %51

51:                                               ; preds = %41
  store i32 0, ptr %3, align 4
  store i32 1, ptr %8, align 4
  br label %52

52:                                               ; preds = %51, %33, %24
  call void @llvm.lifetime.end.p0(i64 8, ptr %7) #11
  call void @llvm.lifetime.end.p0(i64 8, ptr %6) #11
  %53 = load i32, ptr %3, align 4
  ret i32 %53
}