; Function Attrs: nounwind uwtable
define internal range(i32 -1, 1) i32 @_foreach_compare_conf_counts(ptr noundef captures(none) %0, ptr noundef captures(none) %1) #2 {
  %3 = getelementptr inbounds nuw i8, ptr %0, i64 64
  %4 = load ptr, ptr %3, align 8
  %.not = icmp eq ptr %4, null
  br i1 %.not, label %9, label %5

5:                                                ; preds = %2
  %6 = getelementptr inbounds nuw i8, ptr %1, i64 16
  %7 = load ptr, ptr %6, align 8
  %8 = tail call i32 @xstrcasecmp(ptr noundef nonnull %4, ptr noundef %7) #28
  %.not16 = icmp eq i32 %8, 0
  br i1 %.not16, label %9, label %18

9:                                                ; preds = %5, %2
  %10 = getelementptr inbounds nuw i8, ptr %0, i64 8
  %11 = load i64, ptr %10, align 8
  %12 = load i64, ptr %1, align 8
  %13 = icmp ugt i64 %11, %12
  br i1 %13, label %14, label %16

14:                                               ; preds = %9
  %15 = sub nuw i64 %11, %12
  br label %.sink.split

16:                                               ; preds = %9
  %17 = sub nuw i64 %12, %11
  store i64 %17, ptr %1, align 8
  br label %.sink.split

.sink.split:                                      ; preds = %14, %16
  %.sink = phi i64 [ 0, %16 ], [ %15, %14 ]
  %.0.ph = phi i32 [ 0, %16 ], [ -1, %14 ]
  store i64 %.sink, ptr %10, align 8
  br label %18

18:                                               ; preds = %.sink.split, %5
  %.0 = phi i32 [ 0, %5 ], [ %.0.ph, %.sink.split ]
  ret i32 %.0
}